; Function Attrs: null_pointer_is_valid sspstrong uwtable
define internal noundef zeroext i1 @follow_register(ptr readnone captures(none) %0, ptr noundef %1, ptr readnone captures(none) %2) #0 {
  %4 = alloca %struct._stat_tap_ui, align 8
  call void @llvm.lifetime.start.p0(i64 48, ptr nonnull %4) #11
  %5 = tail call ptr @follow_get_stat_tap_string(ptr noundef %1)
  store i32 3, ptr %4, align 8
  %6 = getelementptr inbounds nuw i8, ptr %4, i64 8
  store ptr null, ptr %6, align 8
  %7 = getelementptr inbounds nuw i8, ptr %4, i64 16
  store ptr %5, ptr %7, align 8
  %8 = getelementptr inbounds nuw i8, ptr %4, i64 24
  store ptr @follow_stream, ptr %8, align 8
  %9 = getelementptr inbounds nuw i8, ptr %4, i64 32
  call void @llvm.memset.p0.i64(ptr noundef nonnull align 8 dereferenceable(16) %9, i8 0, i64 16, i1 false)
  call void @register_stat_tap_ui(ptr noundef nonnull %4, ptr noundef %1)
  call void @g_free(ptr noundef %5)
  call void @llvm.lifetime.end.p0(i64 48, ptr nonnull %4) #11
  ret i1 false
}